; Function Attrs: nounwind uwtable
define internal void @ALSA_CloseDevice(ptr noundef readonly captures(none) %0) #0 {
  %2 = getelementptr inbounds nuw i8, ptr %0, i64 200
  %3 = load ptr, ptr %2, align 8
  %.not = icmp eq ptr %3, null
  br i1 %.not, label %23, label %4

4:                                                ; preds = %1
  %5 = load ptr, ptr %3, align 8
  %.not7 = icmp eq ptr %5, null
  br i1 %.not7, label %18, label %6

6:                                                ; preds = %4
  %7 = getelementptr inbounds nuw i8, ptr %0, i64 132
  %8 = load i32, ptr %7, align 4
  %9 = mul nsw i32 %8, 1000
  %10 = getelementptr inbounds nuw i8, ptr %0, i64 104
  %11 = load i32, ptr %10, align 8
  %12 = sdiv i32 %9, %11
  %13 = shl nsw i32 %12, 1
  tail call void @SDL_Delay_REAL(i32 noundef %13) #8
  %14 = load ptr, ptr @ALSA_snd_pcm_close, align 8
  %15 = load ptr, ptr %2, align 8
  %16 = load ptr, ptr %15, align 8
  %17 = tail call i32 %14(ptr noundef %16) #8
  %.pre = load ptr, ptr %2, align 8
  br label %18

18:                                               ; preds = %6, %4
  %19 = phi ptr [ %.pre, %6 ], [ %3, %4 ]
  %20 = getelementptr inbounds nuw i8, ptr %19, i64 8
  %21 = load ptr, ptr %20, align 8
  tail call void @SDL_free_REAL(ptr noundef %21) #8
  %22 = load ptr, ptr %2, align 8
  tail call void @SDL_free_REAL(ptr noundef %22) #8
  br label %23

23:                                               ; preds = %18, %1
  ret void
}